target datalayout = "e-m:e-p270:32:32-p271:32:32-p272:64:64-i64:64-i128:128-f80:128-n8:16:32:64-S128"
target triple = "x86_64-pc-linux-gnu"

%"class.std::__cxx11::basic_string" = type { %"struct.std::__cxx11::basic_string<char>::_Alloc_hider", i64, %union.anon }
%"struct.std::__cxx11::basic_string<char>::_Alloc_hider" = type { ptr }
%union.anon = type { i64, [8 x i8] }
%"class.gmx::(anonymous namespace)::OptionsListWriter" = type { %"class.gmx::OptionsVisitor", %"class.std::__cxx11::basic_string" }
%"class.gmx::OptionsVisitor" = type { ptr }

@.str.12 = private unnamed_addr constant [3 x i8] c"\\n\00", align 1
@.str.13 = private unnamed_addr constant [2 x i8] c"-\00", align 1
@.str.14 = private unnamed_addr constant [3 x i8] c"no\00", align 1
@_ZTIN3gmx10OptionInfoE = external constant ptr
@_ZTIN3gmx17BooleanOptionInfoE = linkonce_odr constant { ptr, ptr, ptr } { ptr getelementptr inbounds (ptr, ptr @_ZTVN10__cxxabiv120__si_class_type_infoE, i64 2), ptr @_ZTSN3gmx17BooleanOptionInfoE, ptr @_ZTIN3gmx10OptionInfoE }, comdat, align 8

; Function Attrs: mustprogress nounwind uwtable
define linkonce_odr noundef ptr @_ZNK3gmx10OptionInfo6toTypeINS_17BooleanOptionInfoEEEPKT_v(ptr noundef nonnull align 8 dereferenceable(16) %0) #3 comdat align 2 {
  %2 = alloca ptr, align 8
  store ptr %0, ptr %2, align 8
  %3 = load ptr, ptr %2, align 8
  %4 = icmp eq ptr %3, null
  br i1 %4, label %7, label %5

5:                                                ; preds = %1
  %6 = call ptr @__dynamic_cast(ptr %3, ptr @_ZTIN3gmx10OptionInfoE, ptr @_ZTIN3gmx17BooleanOptionInfoE, i64 0) #13
  br label %8

7:                                                ; preds = %1
  br label %8

8:                                                ; preds = %7, %5
  %9 = phi ptr [ %6, %5 ], [ null, %7 ]
  ret ptr %9
}

; Function Attrs: mustprogress uwtable
define internal void @_ZN3gmx12_GLOBAL__N_117OptionsListWriter11visitOptionERKNS_10OptionInfoE(ptr noundef nonnull align 8 dereferenceable(40) %0, ptr noundef nonnull align 8 dereferenceable(16) %1) unnamed_addr #0 align 2 {
  %3 = alloca ptr, align 8
  %4 = alloca ptr, align 8
  %5 = alloca ptr, align 8
  store ptr %0, ptr %3, align 8
  store ptr %1, ptr %4, align 8
  %6 = load ptr, ptr %3, align 8
  %7 = load ptr, ptr %4, align 8
  %8 = call noundef zeroext i1 @_ZNK3gmx10OptionInfo8isHiddenEv(ptr noundef nonnull align 8 dereferenceable(16) %7)
  br i1 %8, label %9, label %10

9:                                                ; preds = %2
  br label %34

10:                                               ; preds = %2
  %11 = getelementptr inbounds %"class.gmx::(anonymous namespace)::OptionsListWriter", ptr %6, i32 0, i32 1
  %12 = call noundef zeroext i1 @_ZNKSt7__cxx1112basic_stringIcSt11char_traitsIcESaIcEE5emptyEv(ptr noundef nonnull align 8 dereferenceable(32) %11) #13
  br i1 %12, label %16, label %13

13:                                               ; preds = %10
  %14 = getelementptr inbounds %"class.gmx::(anonymous namespace)::OptionsListWriter", ptr %6, i32 0, i32 1
  %15 = call noundef nonnull align 8 dereferenceable(32) ptr @_ZNSt7__cxx1112basic_stringIcSt11char_traitsIcESaIcEE6appendEPKc(ptr noundef nonnull align 8 dereferenceable(32) %14, ptr noundef @.str.12)
  br label %16

16:                                               ; preds = %13, %10
  %17 = getelementptr inbounds %"class.gmx::(anonymous namespace)::OptionsListWriter", ptr %6, i32 0, i32 1
  %18 = call noundef nonnull align 8 dereferenceable(32) ptr @_ZNSt7__cxx1112basic_stringIcSt11char_traitsIcESaIcEE6appendEPKc(ptr noundef nonnull align 8 dereferenceable(32) %17, ptr noundef @.str.13)
  %19 = load ptr, ptr %4, align 8
  %20 = call noundef ptr @_ZNK3gmx10OptionInfo6toTypeINS_17BooleanOptionInfoEEEPKT_v(ptr noundef nonnull align 8 dereferenceable(16) %19)
  store ptr %20, ptr %5, align 8
  %21 = load ptr, ptr %5, align 8
  %22 = icmp ne ptr %21, null
  br i1 %22, label %23, label %29

23:                                               ; preds = %16
  %24 = load ptr, ptr %5, align 8
  %25 = call noundef zeroext i1 @_ZNK3gmx17BooleanOptionInfo12defaultValueEv(ptr noundef nonnull align 8 dereferenceable(16) %24)
  br i1 %25, label %26, label %29

26:                                               ; preds = %23
  %27 = getelementptr inbounds %"class.gmx::(anonymous namespace)::OptionsListWriter", ptr %6, i32 0, i32 1
  %28 = call noundef nonnull align 8 dereferenceable(32) ptr @_ZNSt7__cxx1112basic_stringIcSt11char_traitsIcESaIcEE6appendEPKc(ptr noundef nonnull align 8 dereferenceable(32) %27, ptr noundef @.str.14)
  br label %29

29:                                               ; preds = %26, %23, %16
  %30 = getelementptr inbounds %"class.gmx::(anonymous namespace)::OptionsListWriter", ptr %6, i32 0, i32 1
  %31 = load ptr, ptr %4, align 8
  %32 = call noundef nonnull align 8 dereferenceable(32) ptr @_ZNK3gmx10OptionInfo4nameB5cxx11Ev(ptr noundef nonnull align 8 dereferenceable(16) %31)
  %33 = call noundef nonnull align 8 dereferenceable(32) ptr @_ZNSt7__cxx1112basic_stringIcSt11char_traitsIcESaIcEE6appendERKS4_(ptr noundef nonnull align 8 dereferenceable(32) %30, ptr noundef nonnull align 8 dereferenceable(32) %32)
  br label %34

34:                                               ; preds = %29, %9
  ret void
}