; Function Attrs: mustprogress uwtable
define internal void @_ZN3gmx12_GLOBAL__N_117OptionsListWriter11visitOptionERKNS_10OptionInfoE(ptr noundef nonnull align 8 dereferenceable(40) %0, ptr noundef nonnull align 8 dereferenceable(16) %1) unnamed_addr #0 align 2 {
  %3 = tail call noundef zeroext i1 @_ZNK3gmx10OptionInfo8isHiddenEv(ptr noundef nonnull align 8 dereferenceable(16) %1)
  br i1 %3, label %19, label %4

4:                                                ; preds = %2
  %5 = getelementptr inbounds i8, ptr %0, i64 8
  %6 = tail call noundef zeroext i1 @_ZNKSt7__cxx1112basic_stringIcSt11char_traitsIcESaIcEE5emptyEv(ptr noundef nonnull align 8 dereferenceable(32) %5) #15
  br i1 %6, label %9, label %7

7:                                                ; preds = %4
  %8 = tail call noundef nonnull align 8 dereferenceable(32) ptr @_ZNSt7__cxx1112basic_stringIcSt11char_traitsIcESaIcEE6appendEPKc(ptr noundef nonnull align 8 dereferenceable(32) %5, ptr noundef nonnull @.str.12)
  br label %9

9:                                                ; preds = %7, %4
  %10 = tail call noundef nonnull align 8 dereferenceable(32) ptr @_ZNSt7__cxx1112basic_stringIcSt11char_traitsIcESaIcEE6appendEPKc(ptr noundef nonnull align 8 dereferenceable(32) %5, ptr noundef nonnull @.str.13)
  %11 = tail call noundef ptr @__dynamic_cast(ptr nonnull %1, ptr nonnull @_ZTIN3gmx10OptionInfoE, ptr nonnull @_ZTIN3gmx17BooleanOptionInfoE, i64 0) #15
  %.not = icmp eq ptr %11, null
  br i1 %.not, label %16, label %12

12:                                               ; preds = %9
  %13 = tail call noundef zeroext i1 @_ZNK3gmx17BooleanOptionInfo12defaultValueEv(ptr noundef nonnull align 8 dereferenceable(16) %11)
  br i1 %13, label %14, label %16

14:                                               ; preds = %12
  %15 = tail call noundef nonnull align 8 dereferenceable(32) ptr @_ZNSt7__cxx1112basic_stringIcSt11char_traitsIcESaIcEE6appendEPKc(ptr noundef nonnull align 8 dereferenceable(32) %5, ptr noundef nonnull @.str.14)
  br label %16

16:                                               ; preds = %14, %12, %9
  %17 = tail call noundef nonnull align 8 dereferenceable(32) ptr @_ZNK3gmx10OptionInfo4nameB5cxx11Ev(ptr noundef nonnull align 8 dereferenceable(16) %1)
  %18 = tail call noundef nonnull align 8 dereferenceable(32) ptr @_ZNSt7__cxx1112basic_stringIcSt11char_traitsIcESaIcEE6appendERKS4_(ptr noundef nonnull align 8 dereferenceable(32) %5, ptr noundef nonnull align 8 dereferenceable(32) %17)
  br label %19

19:                                               ; preds = %2, %16
  ret void
}